; Function Attrs: uwtable
define void @_ZTv0_n40_N5arrow2io16HdfsReadableFile4ReadEl(ptr noalias sret(%"class.arrow::Result.12") align 8 %agg.result, ptr nocapture noundef readonly %this, i64 noundef %nbytes) unnamed_addr #8 align 2 {
entry:
  %0 = load ptr, ptr %this, align 8
  %1 = getelementptr inbounds i8, ptr %0, i64 -40
  %2 = load i64, ptr %1, align 8
  %3 = getelementptr inbounds i8, ptr %this, i64 %2
  %impl_.i = getelementptr inbounds i8, ptr %3, i64 24
  %4 = load ptr, ptr %impl_.i, align 8, !noalias !110
  tail call void @_ZN5arrow2io16HdfsReadableFile20HdfsReadableFileImpl4ReadEl(ptr sret(%"class.arrow::Result.12") align 8 %agg.result, ptr noundef nonnull align 8 dereferenceable(116) %4, i64 noundef %nbytes)
  ret void
}